(dp1
S'squid_04_02_ctrl'
p2
(lp3
(lp4
VnurbsCircle4
p5
aaS'trans'
p6
asS'squid_02_02_ctrl'
p7
(lp8
(lp9
VnurbsCircle2
p10
aaS'rotate'
p11
asS'squid_03_02_02_ctrl'
p12
(lp13
(lp14
aNasS'squid_03_04_ctrl'
p15
(lp16
(lp17
aNasS'squid_03_02_01_ctrl'
p18
(lp19
(lp20
VnurbsCircle3
p21
aag6
asS'squid_01_01_ctrl'
p22
(lp23
(lp24
aNas.